target datalayout = "e-m:e-p270:32:32-p271:32:32-p272:64:64-i64:64-i128:128-f80:128-n8:16:32:64-S128"
target triple = "x86_64-pc-linux-gnu"

%struct.CORD_fill_data = type { i64, i64, ptr }

; Function Attrs: nounwind uwtable
define internal i32 @CORD_batched_fill_proc(ptr noundef %0, ptr noundef %1) #0 {
  %3 = alloca i32, align 4
  %4 = alloca ptr, align 8
  %5 = alloca ptr, align 8
  %6 = alloca ptr, align 8
  %7 = alloca i64, align 8
  %8 = alloca i64, align 8
  %9 = alloca ptr, align 8
  %10 = alloca ptr, align 8
  %11 = alloca i32, align 4
  store ptr %0, ptr %4, align 8, !tbaa !3
  store ptr %1, ptr %5, align 8, !tbaa !28
  call void @llvm.lifetime.start.p0(i64 8, ptr %6) #9
  %12 = load ptr, ptr %5, align 8, !tbaa !28
  store ptr %12, ptr %6, align 8, !tbaa !28
  call void @llvm.lifetime.start.p0(i64 8, ptr %7) #9
  %13 = load ptr, ptr %6, align 8, !tbaa !28
  %14 = getelementptr inbounds nuw %struct.CORD_fill_data, ptr %13, i32 0, i32 1
  %15 = load i64, ptr %14, align 8, !tbaa !27
  store i64 %15, ptr %7, align 8, !tbaa !11
  call void @llvm.lifetime.start.p0(i64 8, ptr %8) #9
  %16 = load ptr, ptr %6, align 8, !tbaa !28
  %17 = getelementptr inbounds nuw %struct.CORD_fill_data, ptr %16, i32 0, i32 0
  %18 = load i64, ptr %17, align 8, !tbaa !24
  store i64 %18, ptr %8, align 8, !tbaa !11
  call void @llvm.lifetime.start.p0(i64 8, ptr %9) #9
  %19 = load ptr, ptr %6, align 8, !tbaa !28
  %20 = getelementptr inbounds nuw %struct.CORD_fill_data, ptr %19, i32 0, i32 2
  %21 = load ptr, ptr %20, align 8, !tbaa !26
  store ptr %21, ptr %9, align 8, !tbaa !3
  call void @llvm.lifetime.start.p0(i64 8, ptr %10) #9
  %22 = load ptr, ptr %4, align 8, !tbaa !3
  store ptr %22, ptr %10, align 8, !tbaa !3
  br label %23

23:                                               ; preds = %42, %2
  %24 = load ptr, ptr %10, align 8, !tbaa !3
  %25 = getelementptr inbounds nuw i8, ptr %24, i32 1
  store ptr %25, ptr %10, align 8, !tbaa !3
  %26 = load i8, ptr %24, align 1, !tbaa !8
  %27 = load ptr, ptr %9, align 8, !tbaa !3
  %28 = load i64, ptr %7, align 8, !tbaa !11
  %29 = getelementptr inbounds nuw i8, ptr %27, i64 %28
  store i8 %26, ptr %29, align 1, !tbaa !8
  %30 = sext i8 %26 to i32
  %31 = icmp ne i32 %30, 0
  br i1 %31, label %32, label %43

32:                                               ; preds = %23
  %33 = load i64, ptr %7, align 8, !tbaa !11
  %34 = add i64 %33, 1
  store i64 %34, ptr %7, align 8, !tbaa !11
  %35 = load i64, ptr %7, align 8, !tbaa !11
  %36 = load i64, ptr %8, align 8, !tbaa !11
  %37 = icmp uge i64 %35, %36
  br i1 %37, label %38, label %42

38:                                               ; preds = %32
  %39 = load i64, ptr %7, align 8, !tbaa !11
  %40 = load ptr, ptr %6, align 8, !tbaa !28
  %41 = getelementptr inbounds nuw %struct.CORD_fill_data, ptr %40, i32 0, i32 1
  store i64 %39, ptr %41, align 8, !tbaa !27
  store i32 1, ptr %3, align 4
  store i32 1, ptr %11, align 4
  br label %47

42:                                               ; preds = %32
  br label %23, !llvm.loop !43

43:                                               ; preds = %23
  %44 = load i64, ptr %7, align 8, !tbaa !11
  %45 = load ptr, ptr %6, align 8, !tbaa !28
  %46 = getelementptr inbounds nuw %struct.CORD_fill_data, ptr %45, i32 0, i32 1
  store i64 %44, ptr %46, align 8, !tbaa !27
  store i32 0, ptr %3, align 4
  store i32 1, ptr %11, align 4
  br label %47

47:                                               ; preds = %43, %38
  call void @llvm.lifetime.end.p0(i64 8, ptr %10) #9
  call void @llvm.lifetime.end.p0(i64 8, ptr %9) #9
  call void @llvm.lifetime.end.p0(i64 8, ptr %8) #9
  call void @llvm.lifetime.end.p0(i64 8, ptr %7) #9
  call void @llvm.lifetime.end.p0(i64 8, ptr %6) #9
  %48 = load i32, ptr %3, align 4
  ret i32 %48
}