; Function Attrs: nofree norecurse nosync nounwind memory(write, argmem: readwrite, inaccessiblemem: none) uwtable
define internal range(i32 0, 2) i32 @CORD_batched_fill_proc(ptr noundef readonly captures(none) %0, ptr noundef captures(none) %1) #14 {
  %3 = getelementptr inbounds nuw i8, ptr %1, i64 8
  %4 = load i64, ptr %3, align 8, !tbaa !25
  %5 = load i64, ptr %1, align 8, !tbaa !22
  %6 = getelementptr inbounds nuw i8, ptr %1, i64 16
  %7 = load ptr, ptr %6, align 8, !tbaa !24
  br label %8

8:                                                ; preds = %11, %2
  %.016 = phi i64 [ %4, %2 ], [ %13, %11 ]
  %.0 = phi ptr [ %0, %2 ], [ %12, %11 ]
  %9 = load i8, ptr %.0, align 1, !tbaa !8
  %10 = getelementptr inbounds nuw i8, ptr %7, i64 %.016
  store i8 %9, ptr %10, align 1, !tbaa !8
  %.not = icmp eq i8 %9, 0
  br i1 %.not, label %14, label %11

11:                                               ; preds = %8
  %12 = getelementptr inbounds nuw i8, ptr %.0, i64 1
  %13 = add i64 %.016, 1
  %.not18 = icmp ult i64 %13, %5
  br i1 %.not18, label %8, label %14, !llvm.loop !39

14:                                               ; preds = %8, %11
  %storemerge = phi i64 [ %13, %11 ], [ %.016, %8 ]
  %.015 = phi i32 [ 1, %11 ], [ 0, %8 ]
  store i64 %storemerge, ptr %3, align 8, !tbaa !25
  ret i32 %.015
}